; Function Attrs: mustprogress nofree norecurse nosync nounwind willreturn memory(argmem: read) uwtable
define noundef zeroext i1 @_ZNK3net18TcpCubicSenderBase10InRecoveryEv(ptr noundef nonnull readonly align 8 captures(none) dereferenceable(141) %0) unnamed_addr #8 align 2 {
  %2 = getelementptr inbounds nuw i8, ptr %0, i64 120
  %3 = load i64, ptr %2, align 8, !tbaa !46
  %4 = getelementptr inbounds nuw i8, ptr %0, i64 128
  %5 = load i64, ptr %4, align 8, !tbaa !59
  %6 = add i64 %3, -1
  %spec.select = icmp ult i64 %6, %5
  ret i1 %spec.select
}